; Function Attrs: mustprogress uwtable
define dso_local void @_Z34ImGui_ImplGlfw_MouseButtonCallbackP10GLFWwindowiii(ptr noundef %0, i32 noundef %1, i32 noundef %2, i32 noundef %3) #1 {
_ZL29ImGui_ImplGlfw_GetBackendDatav.exit:
  %4 = tail call noundef ptr @_ZN5ImGui17GetCurrentContextEv()
  %.not.i = icmp ne ptr %4, null
  tail call void @llvm.assume(i1 %.not.i)
  %5 = tail call noundef nonnull align 8 dereferenceable(2944) ptr @_ZN5ImGui5GetIOEv()
  %6 = getelementptr inbounds nuw i8, ptr %5, i64 144
  %7 = load ptr, ptr %6, align 8, !tbaa !4
  %8 = getelementptr inbounds nuw i8, ptr %7, i64 144
  %9 = load ptr, ptr %8, align 8, !tbaa !21
  %.not = icmp eq ptr %9, null
  br i1 %.not, label %23, label %10

10:                                               ; preds = %_ZL29ImGui_ImplGlfw_GetBackendDatav.exit
  %11 = tail call noundef ptr @_ZN5ImGui17GetCurrentContextEv()
  %.not.i.i = icmp eq ptr %11, null
  br i1 %.not.i.i, label %_ZL29ImGui_ImplGlfw_GetBackendDatav.exit.i, label %12

12:                                               ; preds = %10
  %13 = tail call noundef nonnull align 8 dereferenceable(2944) ptr @_ZN5ImGui5GetIOEv()
  %14 = getelementptr inbounds nuw i8, ptr %13, i64 144
  %15 = load ptr, ptr %14, align 8, !tbaa !4
  br label %_ZL29ImGui_ImplGlfw_GetBackendDatav.exit.i

_ZL29ImGui_ImplGlfw_GetBackendDatav.exit.i:       ; preds = %12, %10
  %16 = phi ptr [ %15, %12 ], [ null, %10 ]
  %17 = getelementptr inbounds nuw i8, ptr %16, i64 113
  %18 = load i8, ptr %17, align 1, !tbaa !26, !range !27, !noundef !28
  %19 = trunc nuw i8 %18 to i1
  br i1 %19, label %_ZL34ImGui_ImplGlfw_ShouldChainCallbackP10GLFWwindow.exit.thread, label %_ZL34ImGui_ImplGlfw_ShouldChainCallbackP10GLFWwindow.exit

_ZL34ImGui_ImplGlfw_ShouldChainCallbackP10GLFWwindow.exit: ; preds = %_ZL29ImGui_ImplGlfw_GetBackendDatav.exit.i
  %20 = load ptr, ptr %16, align 8, !tbaa !29
  %21 = icmp eq ptr %0, %20
  br i1 %21, label %_ZL34ImGui_ImplGlfw_ShouldChainCallbackP10GLFWwindow.exit.thread, label %23

_ZL34ImGui_ImplGlfw_ShouldChainCallbackP10GLFWwindow.exit.thread: ; preds = %_ZL29ImGui_ImplGlfw_GetBackendDatav.exit.i, %_ZL34ImGui_ImplGlfw_ShouldChainCallbackP10GLFWwindow.exit
  %22 = load ptr, ptr %8, align 8, !tbaa !21
  tail call void %22(ptr noundef %0, i32 noundef %1, i32 noundef %2, i32 noundef %3)
  br label %23

23:                                               ; preds = %_ZL34ImGui_ImplGlfw_ShouldChainCallbackP10GLFWwindow.exit.thread, %_ZL34ImGui_ImplGlfw_ShouldChainCallbackP10GLFWwindow.exit, %_ZL29ImGui_ImplGlfw_GetBackendDatav.exit
  tail call fastcc void @_ZL33ImGui_ImplGlfw_UpdateKeyModifiersP10GLFWwindow(ptr noundef %0)
  %24 = tail call noundef nonnull align 8 dereferenceable(2944) ptr @_ZN5ImGui5GetIOEv()
  %or.cond = icmp ult i32 %1, 5
  br i1 %or.cond, label %25, label %27

25:                                               ; preds = %23
  %26 = icmp eq i32 %2, 1
  tail call void @_ZN7ImGuiIO19AddMouseButtonEventEib(ptr noundef nonnull align 8 dereferenceable(2944) %24, i32 noundef %1, i1 noundef zeroext %26)
  br label %27

27:                                               ; preds = %25, %23
  ret void
}